target datalayout = "e-m:e-p270:32:32-p271:32:32-p272:64:64-i64:64-i128:128-f80:128-n8:16:32:64-S128"
target triple = "x86_64-unknown-linux-gnu"

%"struct.Imf_3_2::DeepTiledInputFile::Data" = type <{ %"class.std::mutex", %"class.Imf_3_2::Header", %"class.Imf_3_2::TileDescription", i32, [4 x i8], %"class.Imf_3_2::DeepFrameBuffer", i32, i32, i32, i32, i32, i32, i32, [4 x i8], ptr, ptr, %"class.Imf_3_2::TileOffsets", i8, [7 x i8], %"class.std::vector.11", i32, i8, [3 x i8], i32, [4 x i8], ptr, %"class.std::vector.16", i8, [7 x i8], ptr, i64, i64, i32, i32, %"class.Imf_3_2::Array", ptr, i64, i32, [4 x i8], ptr, i8, [7 x i8] }>
%"class.std::mutex" = type { %"class.std::__mutex_base" }
%"class.std::__mutex_base" = type { %union.pthread_mutex_t }
%union.pthread_mutex_t = type { %struct.__pthread_mutex_s }
%struct.__pthread_mutex_s = type { i32, i32, i32, i32, i32, i16, i16, %struct.__pthread_internal_list }
%struct.__pthread_internal_list = type { ptr, ptr }
%"class.Imf_3_2::Header" = type <{ %"class.std::map", i8, [7 x i8] }>
%"class.std::map" = type { %"class.std::_Rb_tree" }
%"class.std::_Rb_tree" = type { %"struct.std::_Rb_tree<Imf_3_2::Name, std::pair<const Imf_3_2::Name, Imf_3_2::Attribute *>, std::_Select1st<std::pair<const Imf_3_2::Name, Imf_3_2::Attribute *>>, std::less<Imf_3_2::Name>>::_Rb_tree_impl" }
%"struct.std::_Rb_tree<Imf_3_2::Name, std::pair<const Imf_3_2::Name, Imf_3_2::Attribute *>, std::_Select1st<std::pair<const Imf_3_2::Name, Imf_3_2::Attribute *>>, std::less<Imf_3_2::Name>>::_Rb_tree_impl" = type { %"struct.std::_Rb_tree_key_compare", %"struct.std::_Rb_tree_header" }
%"struct.std::_Rb_tree_key_compare" = type { %"struct.std::less" }
%"struct.std::less" = type { i8 }
%"struct.std::_Rb_tree_header" = type { %"struct.std::_Rb_tree_node_base", i64 }
%"struct.std::_Rb_tree_node_base" = type { i32, ptr, ptr, ptr }
%"class.Imf_3_2::TileDescription" = type { i32, i32, i32, i32 }
%"class.Imf_3_2::DeepFrameBuffer" = type { %"class.std::map.3", %"struct.Imf_3_2::Slice" }
%"class.std::map.3" = type { %"class.std::_Rb_tree.4" }
%"class.std::_Rb_tree.4" = type { %"struct.std::_Rb_tree<Imf_3_2::Name, std::pair<const Imf_3_2::Name, Imf_3_2::DeepSlice>, std::_Select1st<std::pair<const Imf_3_2::Name, Imf_3_2::DeepSlice>>, std::less<Imf_3_2::Name>>::_Rb_tree_impl" }
%"struct.std::_Rb_tree<Imf_3_2::Name, std::pair<const Imf_3_2::Name, Imf_3_2::DeepSlice>, std::_Select1st<std::pair<const Imf_3_2::Name, Imf_3_2::DeepSlice>>, std::less<Imf_3_2::Name>>::_Rb_tree_impl" = type { %"struct.std::_Rb_tree_key_compare", %"struct.std::_Rb_tree_header" }
%"struct.Imf_3_2::Slice" = type <{ i32, [4 x i8], ptr, i64, i64, i32, i32, double, i8, i8, [6 x i8] }>
%"class.Imf_3_2::TileOffsets" = type { i32, i32, i32, %"class.std::vector" }
%"class.std::vector" = type { %"struct.std::_Vector_base" }
%"struct.std::_Vector_base" = type { %"struct.std::_Vector_base<std::vector<std::vector<unsigned long>>, std::allocator<std::vector<std::vector<unsigned long>>>>::_Vector_impl" }
%"struct.std::_Vector_base<std::vector<std::vector<unsigned long>>, std::allocator<std::vector<std::vector<unsigned long>>>>::_Vector_impl" = type { %"struct.std::_Vector_base<std::vector<std::vector<unsigned long>>, std::allocator<std::vector<std::vector<unsigned long>>>>::_Vector_impl_data" }
%"struct.std::_Vector_base<std::vector<std::vector<unsigned long>>, std::allocator<std::vector<std::vector<unsigned long>>>>::_Vector_impl_data" = type { ptr, ptr, ptr }
%"class.std::vector.11" = type { %"struct.std::_Vector_base.12" }
%"struct.std::_Vector_base.12" = type { %"struct.std::_Vector_base<Imf_3_2::(anonymous namespace)::TInSliceInfo *, std::allocator<Imf_3_2::(anonymous namespace)::TInSliceInfo *>>::_Vector_impl" }
%"struct.std::_Vector_base<Imf_3_2::(anonymous namespace)::TInSliceInfo *, std::allocator<Imf_3_2::(anonymous namespace)::TInSliceInfo *>>::_Vector_impl" = type { %"struct.std::_Vector_base<Imf_3_2::(anonymous namespace)::TInSliceInfo *, std::allocator<Imf_3_2::(anonymous namespace)::TInSliceInfo *>>::_Vector_impl_data" }
%"struct.std::_Vector_base<Imf_3_2::(anonymous namespace)::TInSliceInfo *, std::allocator<Imf_3_2::(anonymous namespace)::TInSliceInfo *>>::_Vector_impl_data" = type { ptr, ptr, ptr }
%"class.std::vector.16" = type { %"struct.std::_Vector_base.17" }
%"struct.std::_Vector_base.17" = type { %"struct.std::_Vector_base<Imf_3_2::(anonymous namespace)::TileBuffer *, std::allocator<Imf_3_2::(anonymous namespace)::TileBuffer *>>::_Vector_impl" }
%"struct.std::_Vector_base<Imf_3_2::(anonymous namespace)::TileBuffer *, std::allocator<Imf_3_2::(anonymous namespace)::TileBuffer *>>::_Vector_impl" = type { %"struct.std::_Vector_base<Imf_3_2::(anonymous namespace)::TileBuffer *, std::allocator<Imf_3_2::(anonymous namespace)::TileBuffer *>>::_Vector_impl_data" }
%"struct.std::_Vector_base<Imf_3_2::(anonymous namespace)::TileBuffer *, std::allocator<Imf_3_2::(anonymous namespace)::TileBuffer *>>::_Vector_impl_data" = type { ptr, ptr, ptr }
%"class.Imf_3_2::Array" = type { i64, ptr }
%"struct.Imf_3_2::InputStreamMutex" = type { %"class.std::mutex", ptr, i64 }
%"class.Imf_3_2::DeepTiledInputFile" = type { %"class.Imf_3_2::GenericInputFile", ptr }
%"class.Imf_3_2::GenericInputFile" = type { ptr }

@_ZTVN7Imf_3_218DeepTiledInputFileE = unnamed_addr constant { [4 x ptr] } { [4 x ptr] [ptr null, ptr @_ZTIN7Imf_3_218DeepTiledInputFileE, ptr @_ZN7Imf_3_218DeepTiledInputFileD1Ev, ptr @_ZN7Imf_3_218DeepTiledInputFileD0Ev] }, align 8
@_ZN7Imf_3_218DeepTiledInputFile4DataC1Ei = unnamed_addr alias void (ptr, i32), ptr @_ZN7Imf_3_218DeepTiledInputFile4DataC2Ei

; Function Attrs: mustprogress uwtable
define void @_ZN7Imf_3_218DeepTiledInputFileC2ERKNS_6HeaderEPNS_7IStreamEii(ptr noundef nonnull align 8 dereferenceable(16) %this, ptr noundef nonnull align 8 dereferenceable(49) %header, ptr noundef %is, i32 noundef %version, i32 noundef %numThreads) unnamed_addr #4 align 2 personality ptr @__gxx_personality_v0 {
entry:
  %this.addr = alloca ptr, align 8
  %header.addr = alloca ptr, align 8
  %is.addr = alloca ptr, align 8
  %version.addr = alloca i32, align 4
  %numThreads.addr = alloca i32, align 4
  %exn.slot = alloca ptr, align 8
  %ehselector.slot = alloca i32, align 4
  store ptr %this, ptr %this.addr, align 8
  store ptr %header, ptr %header.addr, align 8
  store ptr %is, ptr %is.addr, align 8
  store i32 %version, ptr %version.addr, align 4
  store i32 %numThreads, ptr %numThreads.addr, align 4
  %this1 = load ptr, ptr %this.addr, align 8
  call void @_ZN7Imf_3_216GenericInputFileC2Ev(ptr noundef nonnull align 8 dereferenceable(8) %this1)
  store ptr getelementptr inbounds ({ [4 x ptr] }, ptr @_ZTVN7Imf_3_218DeepTiledInputFileE, i32 0, i32 0, i32 2), ptr %this1, align 8
  %_data = getelementptr inbounds %"class.Imf_3_2::DeepTiledInputFile", ptr %this1, i32 0, i32 1
  %call = invoke noalias noundef nonnull ptr @_Znwm(i64 noundef 488) #19
          to label %invoke.cont unwind label %lpad

invoke.cont:                                      ; preds = %entry
  %0 = load i32, ptr %numThreads.addr, align 4
  invoke void @_ZN7Imf_3_218DeepTiledInputFile4DataC1Ei(ptr noundef nonnull align 8 dereferenceable(481) %call, i32 noundef %0)
          to label %invoke.cont3 unwind label %lpad2

invoke.cont3:                                     ; preds = %invoke.cont
  store ptr %call, ptr %_data, align 8
  %1 = load ptr, ptr %is.addr, align 8
  %_data4 = getelementptr inbounds %"class.Imf_3_2::DeepTiledInputFile", ptr %this1, i32 0, i32 1
  %2 = load ptr, ptr %_data4, align 8
  %_streamData = getelementptr inbounds %"struct.Imf_3_2::DeepTiledInputFile::Data", ptr %2, i32 0, i32 39
  %3 = load ptr, ptr %_streamData, align 8
  %is5 = getelementptr inbounds %"struct.Imf_3_2::InputStreamMutex", ptr %3, i32 0, i32 1
  store ptr %1, ptr %is5, align 8
  %_data6 = getelementptr inbounds %"class.Imf_3_2::DeepTiledInputFile", ptr %this1, i32 0, i32 1
  %4 = load ptr, ptr %_data6, align 8
  %_deleteStream = getelementptr inbounds %"struct.Imf_3_2::DeepTiledInputFile::Data", ptr %4, i32 0, i32 40
  store i8 0, ptr %_deleteStream, align 8
  %5 = load ptr, ptr %header.addr, align 8
  %_data7 = getelementptr inbounds %"class.Imf_3_2::DeepTiledInputFile", ptr %this1, i32 0, i32 1
  %6 = load ptr, ptr %_data7, align 8
  %header8 = getelementptr inbounds %"struct.Imf_3_2::DeepTiledInputFile::Data", ptr %6, i32 0, i32 1
  %call10 = invoke noundef nonnull align 8 dereferenceable(49) ptr @_ZN7Imf_3_26HeaderaSERKS0_(ptr noundef nonnull align 8 dereferenceable(49) %header8, ptr noundef nonnull align 8 dereferenceable(49) %5)
          to label %invoke.cont9 unwind label %lpad

invoke.cont9:                                     ; preds = %invoke.cont3
  %7 = load i32, ptr %version.addr, align 4
  %_data11 = getelementptr inbounds %"class.Imf_3_2::DeepTiledInputFile", ptr %this1, i32 0, i32 1
  %8 = load ptr, ptr %_data11, align 8
  %version12 = getelementptr inbounds %"struct.Imf_3_2::DeepTiledInputFile::Data", ptr %8, i32 0, i32 3
  store i32 %7, ptr %version12, align 8
  invoke void @_ZN7Imf_3_218DeepTiledInputFile10initializeEv(ptr noundef nonnull align 8 dereferenceable(16) %this1)
          to label %invoke.cont13 unwind label %lpad

invoke.cont13:                                    ; preds = %invoke.cont9
  %_data14 = getelementptr inbounds %"class.Imf_3_2::DeepTiledInputFile", ptr %this1, i32 0, i32 1
  %9 = load ptr, ptr %_data14, align 8
  %tileOffsets = getelementptr inbounds %"struct.Imf_3_2::DeepTiledInputFile::Data", ptr %9, i32 0, i32 16
  %_data15 = getelementptr inbounds %"class.Imf_3_2::DeepTiledInputFile", ptr %this1, i32 0, i32 1
  %10 = load ptr, ptr %_data15, align 8
  %_streamData16 = getelementptr inbounds %"struct.Imf_3_2::DeepTiledInputFile::Data", ptr %10, i32 0, i32 39
  %11 = load ptr, ptr %_streamData16, align 8
  %is17 = getelementptr inbounds %"struct.Imf_3_2::InputStreamMutex", ptr %11, i32 0, i32 1
  %12 = load ptr, ptr %is17, align 8
  %_data18 = getelementptr inbounds %"class.Imf_3_2::DeepTiledInputFile", ptr %this1, i32 0, i32 1
  %13 = load ptr, ptr %_data18, align 8
  %fileIsComplete = getelementptr inbounds %"struct.Imf_3_2::DeepTiledInputFile::Data", ptr %13, i32 0, i32 17
  invoke void @_ZN7Imf_3_211TileOffsets8readFromERNS_7IStreamERbbb(ptr noundef nonnull align 8 dereferenceable(40) %tileOffsets, ptr noundef nonnull align 8 dereferenceable(40) %12, ptr noundef nonnull align 1 dereferenceable(1) %fileIsComplete, i1 noundef zeroext false, i1 noundef zeroext true)
          to label %invoke.cont19 unwind label %lpad

invoke.cont19:                                    ; preds = %invoke.cont13
  %14 = load ptr, ptr %is.addr, align 8
  %vtable = load ptr, ptr %14, align 8
  %vfn = getelementptr inbounds ptr, ptr %vtable, i64 2
  %15 = load ptr, ptr %vfn, align 8
  %call21 = invoke noundef zeroext i1 %15(ptr noundef nonnull align 8 dereferenceable(40) %14)
          to label %invoke.cont20 unwind label %lpad

invoke.cont20:                                    ; preds = %invoke.cont19
  %_data22 = getelementptr inbounds %"class.Imf_3_2::DeepTiledInputFile", ptr %this1, i32 0, i32 1
  %16 = load ptr, ptr %_data22, align 8
  %memoryMapped = getelementptr inbounds %"struct.Imf_3_2::DeepTiledInputFile::Data", ptr %16, i32 0, i32 27
  %frombool = zext i1 %call21 to i8
  store i8 %frombool, ptr %memoryMapped, align 8
  %_data23 = getelementptr inbounds %"class.Imf_3_2::DeepTiledInputFile", ptr %this1, i32 0, i32 1
  %17 = load ptr, ptr %_data23, align 8
  %_streamData24 = getelementptr inbounds %"struct.Imf_3_2::DeepTiledInputFile::Data", ptr %17, i32 0, i32 39
  %18 = load ptr, ptr %_streamData24, align 8
  %is25 = getelementptr inbounds %"struct.Imf_3_2::InputStreamMutex", ptr %18, i32 0, i32 1
  %19 = load ptr, ptr %is25, align 8
  %vtable26 = load ptr, ptr %19, align 8
  %vfn27 = getelementptr inbounds ptr, ptr %vtable26, i64 5
  %20 = load ptr, ptr %vfn27, align 8
  %call29 = invoke noundef i64 %20(ptr noundef nonnull align 8 dereferenceable(40) %19)
          to label %invoke.cont28 unwind label %lpad

invoke.cont28:                                    ; preds = %invoke.cont20
  %_data30 = getelementptr inbounds %"class.Imf_3_2::DeepTiledInputFile", ptr %this1, i32 0, i32 1
  %21 = load ptr, ptr %_data30, align 8
  %_streamData31 = getelementptr inbounds %"struct.Imf_3_2::DeepTiledInputFile::Data", ptr %21, i32 0, i32 39
  %22 = load ptr, ptr %_streamData31, align 8
  %currentPosition = getelementptr inbounds %"struct.Imf_3_2::InputStreamMutex", ptr %22, i32 0, i32 2
  store i64 %call29, ptr %currentPosition, align 8
  ret void

lpad:                                             ; preds = %invoke.cont20, %invoke.cont19, %invoke.cont13, %invoke.cont9, %invoke.cont3, %entry
  %23 = landingpad { ptr, i32 }
          cleanup
  %24 = extractvalue { ptr, i32 } %23, 0
  store ptr %24, ptr %exn.slot, align 8
  %25 = extractvalue { ptr, i32 } %23, 1
  store i32 %25, ptr %ehselector.slot, align 4
  br label %ehcleanup

lpad2:                                            ; preds = %invoke.cont
  %26 = landingpad { ptr, i32 }
          cleanup
  %27 = extractvalue { ptr, i32 } %26, 0
  store ptr %27, ptr %exn.slot, align 8
  %28 = extractvalue { ptr, i32 } %26, 1
  store i32 %28, ptr %ehselector.slot, align 4
  call void @_ZdlPv(ptr noundef %call) #17
  br label %ehcleanup

ehcleanup:                                        ; preds = %lpad2, %lpad
  call void @_ZN7Imf_3_216GenericInputFileD2Ev(ptr noundef nonnull align 8 dereferenceable(8) %this1) #3
  br label %eh.resume

eh.resume:                                        ; preds = %ehcleanup
  %exn = load ptr, ptr %exn.slot, align 8
  %sel = load i32, ptr %ehselector.slot, align 4
  %lpad.val = insertvalue { ptr, i32 } poison, ptr %exn, 0
  %lpad.val32 = insertvalue { ptr, i32 } %lpad.val, i32 %sel, 1
  resume { ptr, i32 } %lpad.val32
}