; Function Attrs: mustprogress uwtable
define void @_ZN7Imf_3_218DeepTiledInputFileC2ERKNS_6HeaderEPNS_7IStreamEii(ptr noundef nonnull align 8 dereferenceable(16) %this, ptr noundef nonnull align 8 dereferenceable(49) %header, ptr noundef %is, i32 noundef %version, i32 noundef %numThreads) unnamed_addr #3 align 2 personality ptr @__gxx_personality_v0 {
entry:
  tail call void @_ZN7Imf_3_216GenericInputFileC2Ev(ptr noundef nonnull align 8 dereferenceable(8) %this)
  store ptr getelementptr inbounds ({ [4 x ptr] }, ptr @_ZTVN7Imf_3_218DeepTiledInputFileE, i64 0, i32 0, i64 2), ptr %this, align 8
  %_data = getelementptr inbounds i8, ptr %this, i64 8
  %call = invoke noalias noundef nonnull dereferenceable(488) ptr @_Znwm(i64 noundef 488) #21
          to label %invoke.cont unwind label %lpad

invoke.cont:                                      ; preds = %entry
  invoke void @_ZN7Imf_3_218DeepTiledInputFile4DataC1Ei(ptr noundef nonnull align 8 dereferenceable(481) %call, i32 noundef %numThreads)
          to label %invoke.cont3 unwind label %lpad2

invoke.cont3:                                     ; preds = %invoke.cont
  store ptr %call, ptr %_data, align 8
  %_streamData = getelementptr inbounds i8, ptr %call, i64 472
  %0 = load ptr, ptr %_streamData, align 8
  %is5 = getelementptr inbounds i8, ptr %0, i64 40
  store ptr %is, ptr %is5, align 8
  %1 = load ptr, ptr %_data, align 8
  %_deleteStream = getelementptr inbounds i8, ptr %1, i64 480
  store i8 0, ptr %_deleteStream, align 8
  %2 = load ptr, ptr %_data, align 8
  %header8 = getelementptr inbounds i8, ptr %2, i64 40
  %call10 = invoke noundef nonnull align 8 dereferenceable(49) ptr @_ZN7Imf_3_26HeaderaSERKS0_(ptr noundef nonnull align 8 dereferenceable(49) %header8, ptr noundef nonnull align 8 dereferenceable(49) %header)
          to label %invoke.cont9 unwind label %lpad

invoke.cont9:                                     ; preds = %invoke.cont3
  %3 = load ptr, ptr %_data, align 8
  %version12 = getelementptr inbounds i8, ptr %3, i64 112
  store i32 %version, ptr %version12, align 8
  invoke void @_ZN7Imf_3_218DeepTiledInputFile10initializeEv(ptr noundef nonnull align 8 dereferenceable(16) %this)
          to label %invoke.cont13 unwind label %lpad

invoke.cont13:                                    ; preds = %invoke.cont9
  %4 = load ptr, ptr %_data, align 8
  %tileOffsets = getelementptr inbounds i8, ptr %4, i64 272
  %_streamData16 = getelementptr inbounds i8, ptr %4, i64 472
  %5 = load ptr, ptr %_streamData16, align 8
  %is17 = getelementptr inbounds i8, ptr %5, i64 40
  %6 = load ptr, ptr %is17, align 8
  %fileIsComplete = getelementptr inbounds i8, ptr %4, i64 312
  invoke void @_ZN7Imf_3_211TileOffsets8readFromERNS_7IStreamERbbb(ptr noundef nonnull align 8 dereferenceable(40) %tileOffsets, ptr noundef nonnull align 8 dereferenceable(40) %6, ptr noundef nonnull align 1 dereferenceable(1) %fileIsComplete, i1 noundef zeroext false, i1 noundef zeroext true)
          to label %invoke.cont19 unwind label %lpad

invoke.cont19:                                    ; preds = %invoke.cont13
  %vtable = load ptr, ptr %is, align 8
  %vfn = getelementptr inbounds i8, ptr %vtable, i64 16
  %7 = load ptr, ptr %vfn, align 8
  %call21 = invoke noundef zeroext i1 %7(ptr noundef nonnull align 8 dereferenceable(40) %is)
          to label %invoke.cont20 unwind label %lpad

invoke.cont20:                                    ; preds = %invoke.cont19
  %8 = load ptr, ptr %_data, align 8
  %memoryMapped = getelementptr inbounds i8, ptr %8, i64 392
  %frombool = zext i1 %call21 to i8
  store i8 %frombool, ptr %memoryMapped, align 8
  %9 = load ptr, ptr %_data, align 8
  %_streamData24 = getelementptr inbounds i8, ptr %9, i64 472
  %10 = load ptr, ptr %_streamData24, align 8
  %is25 = getelementptr inbounds i8, ptr %10, i64 40
  %11 = load ptr, ptr %is25, align 8
  %vtable26 = load ptr, ptr %11, align 8
  %vfn27 = getelementptr inbounds i8, ptr %vtable26, i64 40
  %12 = load ptr, ptr %vfn27, align 8
  %call29 = invoke noundef i64 %12(ptr noundef nonnull align 8 dereferenceable(40) %11)
          to label %invoke.cont28 unwind label %lpad

invoke.cont28:                                    ; preds = %invoke.cont20
  %13 = load ptr, ptr %_data, align 8
  %_streamData31 = getelementptr inbounds i8, ptr %13, i64 472
  %14 = load ptr, ptr %_streamData31, align 8
  %currentPosition = getelementptr inbounds i8, ptr %14, i64 48
  store i64 %call29, ptr %currentPosition, align 8
  ret void

lpad:                                             ; preds = %invoke.cont20, %invoke.cont19, %invoke.cont13, %invoke.cont9, %invoke.cont3, %entry
  %15 = landingpad { ptr, i32 }
          cleanup
  br label %ehcleanup

lpad2:                                            ; preds = %invoke.cont
  %16 = landingpad { ptr, i32 }
          cleanup
  tail call void @_ZdlPv(ptr noundef nonnull %call) #22
  br label %ehcleanup

ehcleanup:                                        ; preds = %lpad2, %lpad
  %.pn = phi { ptr, i32 } [ %15, %lpad ], [ %16, %lpad2 ]
  tail call void @_ZN7Imf_3_216GenericInputFileD2Ev(ptr noundef nonnull align 8 dereferenceable(8) %this) #20
  resume { ptr, i32 } %.pn
}